target datalayout = "e-m:e-p270:32:32-p271:32:32-p272:64:64-i64:64-i128:128-f80:128-n8:16:32:64-S128"
target triple = "x86_64-unknown-linux-gnu"

%"struct.QuantLib::FdmSchemeDesc" = type { i32, double, double }

; Function Attrs: mustprogress nounwind uwtable
define void @_ZN8QuantLib13FdmSchemeDescC2ENS0_13FdmSchemeTypeEdd(ptr noundef nonnull align 8 dereferenceable(24) %this, i32 noundef %aType, double noundef %aTheta, double noundef %aMu) unnamed_addr #5 align 2 {
entry:
  %this.addr = alloca ptr, align 8
  %aType.addr = alloca i32, align 4
  %aTheta.addr = alloca double, align 8
  %aMu.addr = alloca double, align 8
  store ptr %this, ptr %this.addr, align 8, !tbaa !3
  store i32 %aType, ptr %aType.addr, align 4, !tbaa !9
  store double %aTheta, ptr %aTheta.addr, align 8, !tbaa !11
  store double %aMu, ptr %aMu.addr, align 8, !tbaa !11
  %this1 = load ptr, ptr %this.addr, align 8
  %type = getelementptr inbounds nuw %"struct.QuantLib::FdmSchemeDesc", ptr %this1, i32 0, i32 0
  %0 = load i32, ptr %aType.addr, align 4, !tbaa !9
  store i32 %0, ptr %type, align 8, !tbaa !13
  %theta = getelementptr inbounds nuw %"struct.QuantLib::FdmSchemeDesc", ptr %this1, i32 0, i32 1
  %1 = load double, ptr %aTheta.addr, align 8, !tbaa !11
  store double %1, ptr %theta, align 8, !tbaa !15
  %mu = getelementptr inbounds nuw %"struct.QuantLib::FdmSchemeDesc", ptr %this1, i32 0, i32 2
  %2 = load double, ptr %aMu.addr, align 8, !tbaa !11
  store double %2, ptr %mu, align 8, !tbaa !16
  ret void
}