; Function Attrs: mustprogress nofree norecurse nosync nounwind willreturn memory(argmem: write) uwtable
define void @_ZN8QuantLib13FdmSchemeDescC2ENS0_13FdmSchemeTypeEdd(ptr nocapture noundef nonnull writeonly align 8 dereferenceable(24) %this, i32 noundef %aType, double noundef %aTheta, double noundef %aMu) unnamed_addr #10 align 2 {
entry:
  store i32 %aType, ptr %this, align 8, !tbaa !18
  %theta = getelementptr inbounds nuw i8, ptr %this, i64 8
  store double %aTheta, ptr %theta, align 8, !tbaa !22
  %mu = getelementptr inbounds nuw i8, ptr %this, i64 16
  store double %aMu, ptr %mu, align 8, !tbaa !23
  ret void
}